ccopy_reg
_reconstructor
p0
(cnltk.classify.naivebayes
NaiveBayesClassifier
p1
c__builtin__
object
p2
Ntp3
Rp4
(dp5
S'_labels'
p6
(lp7
S'date'
p8
aS'date_time'
p9
aS'time'
p10
asS'_feature_probdist'
p11
(dp12
(g10
S'count: 1'
p13
tp14
g0
(cnltk.probability
ELEProbDist
p15
g2
Ntp16
Rp17
(dp18
S'_gamma'
p19
F0.5
sS'_N'
p20
I3245
sS'_freqdist'
p21
cnltk.probability
FreqDist
p22
((dp23
I0
I895
sI1
I1389
sI2
I758
sI3
I184
sI4
I16
sI5
I3
stp24
Rp25
sS'_bins'
p26
I10
sS'_divisor'
p27
F3250.0
sbs(g8
S'count: 2'
p28
tp29
g0
(g15
g2
Ntp30
Rp31
(dp32
g19
F0.5
sg20
I3363
sg21
g22
((dp33
I0
I881
sI1
I1486
sI2
I779
sI3
I186
sI4
I30
sI5
I1
stp34
Rp35
sg26
I8
sg27
F3367.0
sbs(g9
S'count: 9'
p36
tp37
g0
(g15
g2
Ntp38
Rp39
(dp40
g19
F0.5
sg20
I3292
sg21
g22
((dp41
I0
I747
sI1
I1188
sI2
I918
sI3
I336
sI4
I86
sI5
I17
stp42
Rp43
sg26
I6
sg27
F3295.0
sbs(g9
S'count: 2'
p44
tp45
g0
(g15
g2
Ntp46
Rp47
(dp48
g19
F0.5
sg20
I3292
sg21
g22
((dp49
I0
I358
sI1
I966
sI2
I978
sI3
I629
sI4
I252
sI5
I89
sI6
I19
sI8
I1
stp50
Rp51
sg26
I8
sg27
F3296.0
sbs(g9
S'count: /'
p52
tp53
g0
(g15
g2
Ntp54
Rp55
(dp56
g19
F0.5
sg20
I3292
sg21
g22
((dp57
I2
I3292
stp58
Rp59
sg26
I2
sg27
F3293.0
sbs(g8
S'count: .'
p60
tp61
g0
(g15
g2
Ntp62
Rp63
(dp64
g19
F0.5
sg20
I3363
sg21
g22
((dp65
I0
I3363
stp66
Rp67
sg26
I1
sg27
F3363.5
sbs(g9
S'count: .'
p68
tp69
g0
(g15
g2
Ntp70
Rp71
(dp72
g19
F0.5
sg20
I3292
sg21
g22
((dp73
I0
I3292
stp74
Rp75
sg26
I1
sg27
F3292.5
sbs(g8
S'count: /'
p76
tp77
g0
(g15
g2
Ntp78
Rp79
(dp80
g19
F0.5
sg20
I3363
sg21
g22
((dp81
I2
I3363
stp82
Rp83
sg26
I2
sg27
F3364.0
sbs(g9
S'count: 1'
p84
tp85
g0
(g15
g2
Ntp86
Rp87
(dp88
g19
F0.5
sg20
I3292
sg21
g22
((dp89
I0
I64
sI1
I479
sI2
I858
sI3
I926
sI4
I600
sI5
I265
sI6
I75
sI7
I22
sI8
I2
sI10
I1
stp90
Rp91
sg26
I10
sg27
F3297.0
sbs(g9
S'count: :'
p92
tp93
g0
(g15
g2
Ntp94
Rp95
(dp96
g19
F0.5
sg20
I3292
sg21
g22
((dp97
I2
I3292
stp98
Rp99
sg26
I2
sg27
F3293.0
sbs(g8
S'count: :'
p100
tp101
g0
(g15
g2
Ntp102
Rp103
(dp104
g19
F0.5
sg20
I3363
sg21
g22
((dp105
I0
I3363
stp106
Rp107
sg26
I2
sg27
F3364.0
sbs(g10
S'count: /'
p108
tp109
g0
(g15
g2
Ntp110
Rp111
(dp112
g19
F0.5
sg20
I3245
sg21
g22
((dp113
I0
I3245
stp114
Rp115
sg26
I2
sg27
F3246.0
sbs(g8
S'count: 9'
p116
tp117
g0
(g15
g2
Ntp118
Rp119
(dp120
g19
F0.5
sg20
I3363
sg21
g22
((dp121
I0
I1039
sI1
I1258
sI2
I873
sI3
I176
sI4
I16
sI5
I1
stp122
Rp123
sg26
I6
sg27
F3366.0
sbs(g10
S'count: 9'
p124
tp125
g0
(g15
g2
Ntp126
Rp127
(dp128
g19
F0.5
sg20
I3245
sg21
g22
((dp129
I0
I2409
sI1
I758
sI2
I78
stp130
Rp131
sg26
I6
sg27
F3248.0
sbs(g10
S'count: .'
p132
tp133
g0
(g15
g2
Ntp134
Rp135
(dp136
g19
F0.5
sg20
I3245
sg21
g22
((dp137
I0
I3245
stp138
Rp139
sg26
I1
sg27
F3245.5
sbs(g8
S'count: 1'
p140
tp141
g0
(g15
g2
Ntp142
Rp143
(dp144
g19
F0.5
sg20
I3363
sg21
g22
((dp145
I0
I238
sI1
I1219
sI2
I1186
sI3
I558
sI4
I145
sI5
I16
sI6
I1
stp146
Rp147
sg26
I10
sg27
F3368.0
sbs(g10
S'count: 2'
p148
tp149
g0
(g15
g2
Ntp150
Rp151
(dp152
g19
F0.5
sg20
I3245
sg21
g22
((dp153
I0
I1387
sI1
I1239
sI2
I465
sI3
I136
sI4
I17
sI5
I1
stp154
Rp155
sg26
I8
sg27
F3249.0
sbs(g10
S'count: :'
p156
tp157
g0
(g15
g2
Ntp158
Rp159
(dp160
g19
F0.5
sg20
I3245
sg21
g22
((dp161
I2
I3245
stp162
Rp163
sg26
I2
sg27
F3246.0
sbssS'_label_probdist'
p164
g0
(g15
g2
Ntp165
Rp166
(dp167
g19
F0.5
sg20
I9900
sg21
g22
((dp168
g8
I3363
sg9
I3292
sg10
I3245
stp169
Rp170
sg26
I3
sg27
F9901.5
sbsb.