ccopy_reg
_reconstructor
p0
(cnltk.classify.naivebayes
NaiveBayesClassifier
p1
c__builtin__
object
p2
Ntp3
Rp4
(dp5
S'_labels'
p6
(lp7
S'date'
p8
aS'date_time'
p9
aS'float'
p10
aS'hex'
p11
aS'time'
p12
asS'_feature_probdist'
p13
(dp14
(g10
S'entry match at: (\\+|\\-)?(\\d{2}\\.\\d+(N|S))'
p15
tp16
g0
(cnltk.probability
ELEProbDist
p17
g2
Ntp18
Rp19
(dp20
S'_gamma'
p21
F0.5
sS'_N'
p22
I10000
sS'_freqdist'
p23
cnltk.probability
FreqDist
p24
((dp25
I0
I10000
stp26
Rp27
sS'_bins'
p28
I1
sS'_divisor'
p29
F10000.5
sbs(g8
S'entry match at: (\\+|\\-)?(([0-8\\d|90|1[0-7]\\d|180)\\.\\d+(E|W))'
p30
tp31
g0
(g17
g2
Ntp32
Rp33
(dp34
g21
F0.5
sg22
I10000
sg23
g24
((dp35
I0
I10000
stp36
Rp37
sg28
I1
sg29
F10000.5
sbs(g12
S'entry match at: (([0-1]\\d|2[0-3]):[0-5]\\d:[0-5]\\d)(AM|PM)?'
p38
tp39
g0
(g17
g2
Ntp40
Rp41
(dp42
g21
F0.5
sg22
I10000
sg23
g24
((dp43
I1
I10000
stp44
Rp45
sg28
I2
sg29
F10001.0
sbs(g9
S'entry match at: .+@.+\\.\\w+'
p46
tp47
g0
(g17
g2
Ntp48
Rp49
(dp50
g21
F0.5
sg22
I10000
sg23
g24
((dp51
I0
I10000
stp52
Rp53
sg28
I1
sg29
F10000.5
sbs(g10
S'entry match at: (([0-1]\\d|2[0-3]):[0-5]\\d:[0-5]\\d)(AM|PM)?'
p54
tp55
g0
(g17
g2
Ntp56
Rp57
(dp58
g21
F0.5
sg22
I10000
sg23
g24
((dp59
I0
I10000
stp60
Rp61
sg28
I2
sg29
F10001.0
sbs(g12
S'entry match at: (\\+|\\-)?(([0-8\\d|90|1[0-7]\\d|180)\\.\\d+(E|W))'
p62
tp63
g0
(g17
g2
Ntp64
Rp65
(dp66
g21
F0.5
sg22
I10000
sg23
g24
((dp67
I0
I10000
stp68
Rp69
sg28
I1
sg29
F10000.5
sbs(g12
S'entry match at: (\\()?\\d{3}(\\))?( )?\\d{3}(-)?\\d{4}(\\d{4})?'
p70
tp71
g0
(g17
g2
Ntp72
Rp73
(dp74
g21
F0.5
sg22
I10000
sg23
g24
((dp75
I0
I10000
stp76
Rp77
sg28
I2
sg29
F10001.0
sbs(g10
S'entry match at: (\\+|\\-)?(([0-8\\d|90|1[0-7]\\d|180)\\.\\d+(E|W))'
p78
tp79
g0
(g17
g2
Ntp80
Rp81
(dp82
g21
F0.5
sg22
I10000
sg23
g24
((dp83
I0
I10000
stp84
Rp85
sg28
I1
sg29
F10000.5
sbs(g10
S'entry match at: ((0\\d|1[0-2])/([0-2]\\d|3[0-1])/(\\d{2}|\\d{4})|([0-2]\\d|3[0-1])/(0\\d|1[0-2])/(\\d{2}|\\d{4})) (([0-1]\\d|2[0-3]):[0-5]\\d:[0-5]\\d)(AM|PM)?'
p86
tp87
g0
(g17
g2
Ntp88
Rp89
(dp90
g21
F0.5
sg22
I10000
sg23
g24
((dp91
I0
I10000
stp92
Rp93
sg28
I2
sg29
F10001.0
sbs(g12
S'entry match at: ((0\\d|1[0-2])/([0-2]\\d|3[0-1])/(\\d{2}|\\d{4})) (([0-1]\\d|2[0-3]):[0-5]\\d:[0-5]\\d)(AM|PM)?'
p94
tp95
g0
(g17
g2
Ntp96
Rp97
(dp98
g21
F0.5
sg22
I10000
sg23
g24
((dp99
I0
I10000
stp100
Rp101
sg28
I2
sg29
F10001.0
sbs(g9
S'entry match at: (\\+|\\-)?(([0-8\\d|90|1[0-7]\\d|180)\\.\\d+(E|W))'
p102
tp103
g0
(g17
g2
Ntp104
Rp105
(dp106
g21
F0.5
sg22
I10000
sg23
g24
((dp107
I0
I10000
stp108
Rp109
sg28
I1
sg29
F10000.5
sbs(g10
S'entry match at: .+@.+\\.\\w+'
p110
tp111
g0
(g17
g2
Ntp112
Rp113
(dp114
g21
F0.5
sg22
I10000
sg23
g24
((dp115
I0
I10000
stp116
Rp117
sg28
I1
sg29
F10000.5
sbs(g9
S'entry match at: (([0-1]\\d|2[0-3]):[0-5]\\d:[0-5]\\d)(AM|PM)?'
p118
tp119
g0
(g17
g2
Ntp120
Rp121
(dp122
g21
F0.5
sg22
I10000
sg23
g24
((dp123
I1
I10000
stp124
Rp125
sg28
I2
sg29
F10001.0
sbs(g8
S'entry match at: (\\+|\\-)?(\\d{2}\\.\\d+(N|S))'
p126
tp127
g0
(g17
g2
Ntp128
Rp129
(dp130
g21
F0.5
sg22
I10000
sg23
g24
((dp131
I0
I10000
stp132
Rp133
sg28
I1
sg29
F10000.5
sbs(g9
S'entry match at: ((0\\d|1[0-2])/([0-2]\\d|3[0-1])/(\\d{2}|\\d{4})|([0-2]\\d|3[0-1])/(0\\d|1[0-2])/(\\d{2}|\\d{4})) (([0-1]\\d|2[0-3]):[0-5]\\d:[0-5]\\d)(AM|PM)?'
p134
tp135
g0
(g17
g2
Ntp136
Rp137
(dp138
g21
F0.5
sg22
I10000
sg23
g24
((dp139
I1
I10000
stp140
Rp141
sg28
I2
sg29
F10001.0
sbs(g10
S'entry match at: ((0\\d|1[0-2])/([0-2]\\d|3[0-1])/(\\d{2}|\\d{4})|([0-2]\\d|3[0-1])/(0\\d|1[0-2])/(\\d{2}|\\d{4}))'
p142
tp143
g0
(g17
g2
Ntp144
Rp145
(dp146
g21
F0.5
sg22
I10000
sg23
g24
((dp147
I0
I10000
stp148
Rp149
sg28
I2
sg29
F10001.0
sbs(g12
S'entry match at: ((0\\d|1[0-2])/([0-2]\\d|3[0-1])/(\\d{2}|\\d{4})|([0-2]\\d|3[0-1])/(0\\d|1[0-2])/(\\d{2}|\\d{4})) (([0-1]\\d|2[0-3]):[0-5]\\d:[0-5]\\d)(AM|PM)?'
p150
tp151
g0
(g17
g2
Ntp152
Rp153
(dp154
g21
F0.5
sg22
I10000
sg23
g24
((dp155
I0
I10000
stp156
Rp157
sg28
I2
sg29
F10001.0
sbs(g8
S'len'
p158
tp159
g0
(g17
g2
Ntp160
Rp161
(dp162
g21
F0.5
sg22
I10000
sg23
g24
((dp163
I10
I10000
stp164
Rp165
sg28
I7
sg29
F10003.5
sbs(g9
S'entry match at: ((0\\d|1[0-2])/([0-2]\\d|3[0-1])/(\\d{2}|\\d{4})|([0-2]\\d|3[0-1])/(0\\d|1[0-2])/(\\d{2}|\\d{4}))'
p166
tp167
g0
(g17
g2
Ntp168
Rp169
(dp170
g21
F0.5
sg22
I10000
sg23
g24
((dp171
I1
I10000
stp172
Rp173
sg28
I2
sg29
F10001.0
sbs(g12
S'entry match at: .+@.+\\.\\w+'
p174
tp175
g0
(g17
g2
Ntp176
Rp177
(dp178
g21
F0.5
sg22
I10000
sg23
g24
((dp179
I0
I10000
stp180
Rp181
sg28
I1
sg29
F10000.5
sbs(g11
S'entry match at: ((0\\d|1[0-2])/([0-2]\\d|3[0-1])/(\\d{2}|\\d{4})|([0-2]\\d|3[0-1])/(0\\d|1[0-2])/(\\d{2}|\\d{4}))'
p182
tp183
g0
(g17
g2
Ntp184
Rp185
(dp186
g21
F0.5
sg22
I10000
sg23
g24
((dp187
I0
I10000
stp188
Rp189
sg28
I2
sg29
F10001.0
sbs(g8
S'entry match at: ((0\\d|1[0-2])/([0-2]\\d|3[0-1])/(\\d{2}|\\d{4})) (([0-1]\\d|2[0-3]):[0-5]\\d:[0-5]\\d)(AM|PM)?'
p190
tp191
g0
(g17
g2
Ntp192
Rp193
(dp194
g21
F0.5
sg22
I10000
sg23
g24
((dp195
I0
I10000
stp196
Rp197
sg28
I2
sg29
F10001.0
sbs(g8
S'entry match at: ((0\\d|1[0-2])/([0-2]\\d|3[0-1])/(\\d{2}|\\d{4})|([0-2]\\d|3[0-1])/(0\\d|1[0-2])/(\\d{2}|\\d{4}))'
p198
tp199
g0
(g17
g2
Ntp200
Rp201
(dp202
g21
F0.5
sg22
I10000
sg23
g24
((dp203
I1
I10000
stp204
Rp205
sg28
I2
sg29
F10001.0
sbs(g8
S'entry match at: (\\()?\\d{3}(\\))?( )?\\d{3}(-)?\\d{4}(\\d{4})?'
p206
tp207
g0
(g17
g2
Ntp208
Rp209
(dp210
g21
F0.5
sg22
I10000
sg23
g24
((dp211
I0
I10000
stp212
Rp213
sg28
I2
sg29
F10001.0
sbs(g11
S'entry match at: ((0\\d|1[0-2])/([0-2]\\d|3[0-1])/(\\d{2}|\\d{4})|([0-2]\\d|3[0-1])/(0\\d|1[0-2])/(\\d{2}|\\d{4})) (([0-1]\\d|2[0-3]):[0-5]\\d:[0-5]\\d)(AM|PM)?'
p214
tp215
g0
(g17
g2
Ntp216
Rp217
(dp218
g21
F0.5
sg22
I10000
sg23
g24
((dp219
I0
I10000
stp220
Rp221
sg28
I2
sg29
F10001.0
sbs(g11
S'entry match at: (\\+|\\-)?(\\d{2}\\.\\d+(N|S))'
p222
tp223
g0
(g17
g2
Ntp224
Rp225
(dp226
g21
F0.5
sg22
I10000
sg23
g24
((dp227
I0
I10000
stp228
Rp229
sg28
I1
sg29
F10000.5
sbs(g9
S'entry match at: (\\+|\\-)?(\\d{2}\\.\\d+(N|S))'
p230
tp231
g0
(g17
g2
Ntp232
Rp233
(dp234
g21
F0.5
sg22
I10000
sg23
g24
((dp235
I0
I10000
stp236
Rp237
sg28
I1
sg29
F10000.5
sbs(g9
g158
tp238
g0
(g17
g2
Ntp239
Rp240
(dp241
g21
F0.5
sg22
I10000
sg23
g24
((dp242
I19
I10000
stp243
Rp244
sg28
I7
sg29
F10003.5
sbs(g8
S'entry match at: ((0\\d|1[0-2])/([0-2]\\d|3[0-1])/(\\d{2}|\\d{4})|([0-2]\\d|3[0-1])/(0\\d|1[0-2])/(\\d{2}|\\d{4})) (([0-1]\\d|2[0-3]):[0-5]\\d:[0-5]\\d)(AM|PM)?'
p245
tp246
g0
(g17
g2
Ntp247
Rp248
(dp249
g21
F0.5
sg22
I10000
sg23
g24
((dp250
I0
I10000
stp251
Rp252
sg28
I2
sg29
F10001.0
sbs(g10
S'entry match at: (\\()?\\d{3}(\\))?( )?\\d{3}(-)?\\d{4}(\\d{4})?'
p253
tp254
g0
(g17
g2
Ntp255
Rp256
(dp257
g21
F0.5
sg22
I10000
sg23
g24
((dp258
I0
I10000
stp259
Rp260
sg28
I2
sg29
F10001.0
sbs(g11
S'entry match at: (([0-1]\\d|2[0-3]):[0-5]\\d:[0-5]\\d)(AM|PM)?'
p261
tp262
g0
(g17
g2
Ntp263
Rp264
(dp265
g21
F0.5
sg22
I10000
sg23
g24
((dp266
I0
I10000
stp267
Rp268
sg28
I2
sg29
F10001.0
sbs(g10
g158
tp269
g0
(g17
g2
Ntp270
Rp271
(dp272
g21
F0.5
sg22
I10000
sg23
g24
((dp273
I3
I287
sI4
I2479
sI5
I7234
stp274
Rp275
sg28
I7
sg29
F10003.5
sbs(g10
S'entry match at: ((0\\d|1[0-2])/([0-2]\\d|3[0-1])/(\\d{2}|\\d{4})) (([0-1]\\d|2[0-3]):[0-5]\\d:[0-5]\\d)(AM|PM)?'
p276
tp277
g0
(g17
g2
Ntp278
Rp279
(dp280
g21
F0.5
sg22
I10000
sg23
g24
((dp281
I0
I10000
stp282
Rp283
sg28
I2
sg29
F10001.0
sbs(g11
S'entry match at: (\\+|\\-)?(([0-8\\d|90|1[0-7]\\d|180)\\.\\d+(E|W))'
p284
tp285
g0
(g17
g2
Ntp286
Rp287
(dp288
g21
F0.5
sg22
I10000
sg23
g24
((dp289
I0
I10000
stp290
Rp291
sg28
I1
sg29
F10000.5
sbs(g11
S'entry match at: (\\()?\\d{3}(\\))?( )?\\d{3}(-)?\\d{4}(\\d{4})?'
p292
tp293
g0
(g17
g2
Ntp294
Rp295
(dp296
g21
F0.5
sg22
I10000
sg23
g24
((dp297
I0
I9875
sI1
I125
stp298
Rp299
sg28
I2
sg29
F10001.0
sbs(g12
S'entry match at: (\\+|\\-)?(\\d{2}\\.\\d+(N|S))'
p300
tp301
g0
(g17
g2
Ntp302
Rp303
(dp304
g21
F0.5
sg22
I10000
sg23
g24
((dp305
I0
I10000
stp306
Rp307
sg28
I1
sg29
F10000.5
sbs(g11
g158
tp308
g0
(g17
g2
Ntp309
Rp310
(dp311
g21
F0.5
sg22
I10000
sg23
g24
((dp312
I12
I10000
stp313
Rp314
sg28
I7
sg29
F10003.5
sbs(g11
S'entry match at: ((0\\d|1[0-2])/([0-2]\\d|3[0-1])/(\\d{2}|\\d{4})) (([0-1]\\d|2[0-3]):[0-5]\\d:[0-5]\\d)(AM|PM)?'
p315
tp316
g0
(g17
g2
Ntp317
Rp318
(dp319
g21
F0.5
sg22
I10000
sg23
g24
((dp320
I0
I10000
stp321
Rp322
sg28
I2
sg29
F10001.0
sbs(g9
S'entry match at: ((0\\d|1[0-2])/([0-2]\\d|3[0-1])/(\\d{2}|\\d{4})) (([0-1]\\d|2[0-3]):[0-5]\\d:[0-5]\\d)(AM|PM)?'
p323
tp324
g0
(g17
g2
Ntp325
Rp326
(dp327
g21
F0.5
sg22
I10000
sg23
g24
((dp328
I0
I6109
sI1
I3891
stp329
Rp330
sg28
I2
sg29
F10001.0
sbs(g9
S'entry match at: (\\()?\\d{3}(\\))?( )?\\d{3}(-)?\\d{4}(\\d{4})?'
p331
tp332
g0
(g17
g2
Ntp333
Rp334
(dp335
g21
F0.5
sg22
I10000
sg23
g24
((dp336
I0
I10000
stp337
Rp338
sg28
I2
sg29
F10001.0
sbs(g11
S'entry match at: .+@.+\\.\\w+'
p339
tp340
g0
(g17
g2
Ntp341
Rp342
(dp343
g21
F0.5
sg22
I10000
sg23
g24
((dp344
I0
I10000
stp345
Rp346
sg28
I1
sg29
F10000.5
sbs(g12
S'entry match at: ((0\\d|1[0-2])/([0-2]\\d|3[0-1])/(\\d{2}|\\d{4})|([0-2]\\d|3[0-1])/(0\\d|1[0-2])/(\\d{2}|\\d{4}))'
p347
tp348
g0
(g17
g2
Ntp349
Rp350
(dp351
g21
F0.5
sg22
I10000
sg23
g24
((dp352
I0
I10000
stp353
Rp354
sg28
I2
sg29
F10001.0
sbs(g12
g158
tp355
g0
(g17
g2
Ntp356
Rp357
(dp358
g21
F0.5
sg22
I10000
sg23
g24
((dp359
I8
I10000
stp360
Rp361
sg28
I7
sg29
F10003.5
sbs(g8
S'entry match at: .+@.+\\.\\w+'
p362
tp363
g0
(g17
g2
Ntp364
Rp365
(dp366
g21
F0.5
sg22
I10000
sg23
g24
((dp367
I0
I10000
stp368
Rp369
sg28
I1
sg29
F10000.5
sbs(g8
S'entry match at: (([0-1]\\d|2[0-3]):[0-5]\\d:[0-5]\\d)(AM|PM)?'
p370
tp371
g0
(g17
g2
Ntp372
Rp373
(dp374
g21
F0.5
sg22
I10000
sg23
g24
((dp375
I0
I10000
stp376
Rp377
sg28
I2
sg29
F10001.0
sbssS'_label_probdist'
p378
g0
(g17
g2
Ntp379
Rp380
(dp381
g21
F0.5
sg22
I50000
sg23
g24
((dp382
g8
I10000
sg9
I10000
sg10
I10000
sg11
I10000
sg12
I10000
stp383
Rp384
sg28
I5
sg29
F50002.5
sbsb.