ccopy_reg
_reconstructor
p0
(cnltk.classify.naivebayes
NaiveBayesClassifier
p1
c__builtin__
object
p2
Ntp3
Rp4
(dp5
S'_labels'
p6
(lp7
S'date'
p8
aS'date_time'
p9
aS'float'
p10
aS'hex'
p11
aS'time'
p12
asS'_feature_probdist'
p13
(dp14
(g10
S'count: 2'
p15
tp16
g0
(cnltk.probability
ELEProbDist
p17
g2
Ntp18
Rp19
(dp20
S'_gamma'
p21
F0.5
sS'_N'
p22
I10000
sS'_freqdist'
p23
cnltk.probability
FreqDist
p24
((dp25
I0
I5629
sI1
I3728
sI2
I608
sI3
I35
stp26
Rp27
sS'_bins'
p28
I9
sS'_divisor'
p29
F10004.5
sbs(g10
S'len'
p30
tp31
g0
(g17
g2
Ntp32
Rp33
(dp34
g21
F0.5
sg22
I10000
sg23
g24
((dp35
I3
I287
sI4
I2479
sI5
I7234
stp36
Rp37
sg28
I7
sg29
F10003.5
sbs(g11
S'count: .'
p38
tp39
g0
(g17
g2
Ntp40
Rp41
(dp42
g21
F0.5
sg22
I10000
sg23
g24
((dp43
I0
I10000
stp44
Rp45
sg28
I2
sg29
F10001.0
sbs(g9
S'count: /'
p46
tp47
g0
(g17
g2
Ntp48
Rp49
(dp50
g21
F0.5
sg22
I10000
sg23
g24
((dp51
I2
I10000
stp52
Rp53
sg28
I2
sg29
F10001.0
sbs(g11
S'count: 9'
p54
tp55
g0
(g17
g2
Ntp56
Rp57
(dp58
g21
F0.5
sg22
I10000
sg23
g24
((dp59
I0
I4612
sI1
I3704
sI2
I1319
sI3
I321
sI4
I40
sI5
I4
stp60
Rp61
sg28
I7
sg29
F10003.5
sbs(g9
S'count: :'
p62
tp63
g0
(g17
g2
Ntp64
Rp65
(dp66
g21
F0.5
sg22
I10000
sg23
g24
((dp67
I2
I10000
stp68
Rp69
sg28
I2
sg29
F10001.0
sbs(g11
S'count: 0'
p70
tp71
g0
(g17
g2
Ntp72
Rp73
(dp74
g21
F0.5
sg22
I10000
sg23
g24
((dp75
I0
I4620
sI1
I3648
sI2
I1355
sI3
I337
sI4
I37
sI5
I3
stp76
Rp77
sg28
I9
sg29
F10004.5
sbs(g8
S'count: 9'
p78
tp79
g0
(g17
g2
Ntp80
Rp81
(dp82
g21
F0.5
sg22
I10000
sg23
g24
((dp83
I0
I3125
sI1
I3838
sI2
I2464
sI3
I519
sI4
I52
sI5
I2
stp84
Rp85
sg28
I7
sg29
F10003.5
sbs(g10
S'count: :'
p86
tp87
g0
(g17
g2
Ntp88
Rp89
(dp90
g21
F0.5
sg22
I10000
sg23
g24
((dp91
I0
I10000
stp92
Rp93
sg28
I2
sg29
F10001.0
sbs(g12
S'count: 0'
p94
tp95
g0
(g17
g2
Ntp96
Rp97
(dp98
g21
F0.5
sg22
I10000
sg23
g24
((dp99
I0
I2814
sI1
I4337
sI2
I2210
sI3
I577
sI4
I60
sI5
I2
stp100
Rp101
sg28
I9
sg29
F10004.5
sbs(g11
g30
tp102
g0
(g17
g2
Ntp103
Rp104
(dp105
g21
F0.5
sg22
I10000
sg23
g24
((dp106
I12
I10000
stp107
Rp108
sg28
I7
sg29
F10003.5
sbs(g8
g30
tp109
g0
(g17
g2
Ntp110
Rp111
(dp112
g21
F0.5
sg22
I10000
sg23
g24
((dp113
I10
I10000
stp114
Rp115
sg28
I7
sg29
F10003.5
sbs(g10
S'count: /'
p116
tp117
g0
(g17
g2
Ntp118
Rp119
(dp120
g21
F0.5
sg22
I10000
sg23
g24
((dp121
I0
I10000
stp122
Rp123
sg28
I2
sg29
F10001.0
sbs(g8
S'count: 1'
p124
tp125
g0
(g17
g2
Ntp126
Rp127
(dp128
g21
F0.5
sg22
I10000
sg23
g24
((dp129
I0
I731
sI1
I3518
sI2
I3603
sI3
I1652
sI4
I449
sI5
I45
sI6
I2
stp130
Rp131
sg28
I10
sg29
F10005.0
sbs(g9
S'count: 0'
p132
tp133
g0
(g17
g2
Ntp134
Rp135
(dp136
g21
F0.5
sg22
I10000
sg23
g24
((dp137
I0
I188
sI1
I1154
sI2
I2522
sI3
I2714
sI4
I2009
sI5
I974
sI6
I350
sI7
I81
sI8
I8
stp138
Rp139
sg28
I9
sg29
F10004.5
sbs(g12
S'count: .'
p140
tp141
g0
(g17
g2
Ntp142
Rp143
(dp144
g21
F0.5
sg22
I10000
sg23
g24
((dp145
I0
I10000
stp146
Rp147
sg28
I2
sg29
F10001.0
sbs(g8
S'count: .'
p148
tp149
g0
(g17
g2
Ntp150
Rp151
(dp152
g21
F0.5
sg22
I10000
sg23
g24
((dp153
I0
I10000
stp154
Rp155
sg28
I2
sg29
F10001.0
sbs(g12
S'count: 1'
p156
tp157
g0
(g17
g2
Ntp158
Rp159
(dp160
g21
F0.5
sg22
I10000
sg23
g24
((dp161
I0
I2846
sI1
I4260
sI2
I2273
sI3
I539
sI4
I76
sI5
I6
stp162
Rp163
sg28
I10
sg29
F10005.0
sbs(g10
S'count: 0'
p164
tp165
g0
(g17
g2
Ntp166
Rp167
(dp168
g21
F0.5
sg22
I10000
sg23
g24
((dp169
I1
I8266
sI2
I1652
sI3
I82
stp170
Rp171
sg28
I9
sg29
F10004.5
sbs(g9
g30
tp172
g0
(g17
g2
Ntp173
Rp174
(dp175
g21
F0.5
sg22
I10000
sg23
g24
((dp176
I19
I10000
stp177
Rp178
sg28
I7
sg29
F10003.5
sbs(g11
S'count: 2'
p179
tp180
g0
(g17
g2
Ntp181
Rp182
(dp183
g21
F0.5
sg22
I10000
sg23
g24
((dp184
I0
I4642
sI1
I3700
sI2
I1325
sI3
I286
sI4
I44
sI5
I3
stp185
Rp186
sg28
I9
sg29
F10004.5
sbs(g8
S'count: 0'
p187
tp188
g0
(g17
g2
Ntp189
Rp190
(dp191
g21
F0.5
sg22
I10000
sg23
g24
((dp192
I0
I519
sI1
I3406
sI2
I3241
sI3
I1938
sI4
I826
sI5
I70
stp193
Rp194
sg28
I9
sg29
F10004.5
sbs(g9
S'count: 1'
p195
tp196
g0
(g17
g2
Ntp197
Rp198
(dp199
g21
F0.5
sg22
I10000
sg23
g24
((dp200
I0
I207
sI1
I1334
sI2
I2760
sI3
I2783
sI4
I1792
sI5
I816
sI6
I235
sI7
I55
sI8
I17
sI10
I1
stp201
Rp202
sg28
I10
sg29
F10005.0
sbs(g10
S'count: .'
p203
tp204
g0
(g17
g2
Ntp205
Rp206
(dp207
g21
F0.5
sg22
I10000
sg23
g24
((dp208
I1
I10000
stp209
Rp210
sg28
I2
sg29
F10001.0
sbs(g12
S'count: /'
p211
tp212
g0
(g17
g2
Ntp213
Rp214
(dp215
g21
F0.5
sg22
I10000
sg23
g24
((dp216
I0
I10000
stp217
Rp218
sg28
I2
sg29
F10001.0
sbs(g12
S'count: 9'
p219
tp220
g0
(g17
g2
Ntp221
Rp222
(dp223
g21
F0.5
sg22
I10000
sg23
g24
((dp224
I0
I7483
sI1
I2273
sI2
I234
sI3
I10
stp225
Rp226
sg28
I7
sg29
F10003.5
sbs(g12
S'count: 2'
p227
tp228
g0
(g17
g2
Ntp229
Rp230
(dp231
g21
F0.5
sg22
I10000
sg23
g24
((dp232
I0
I4224
sI1
I3788
sI2
I1518
sI3
I405
sI4
I59
sI5
I6
stp233
Rp234
sg28
I9
sg29
F10004.5
sbs(g11
S'count: :'
p235
tp236
g0
(g17
g2
Ntp237
Rp238
(dp239
g21
F0.5
sg22
I10000
sg23
g24
((dp240
I0
I10000
stp241
Rp242
sg28
I2
sg29
F10001.0
sbs(g10
S'count: 1'
p243
tp244
g0
(g17
g2
Ntp245
Rp246
(dp247
g21
F0.5
sg22
I10000
sg23
g24
((dp248
I0
I5852
sI1
I3538
sI2
I584
sI3
I26
stp249
Rp250
sg28
I10
sg29
F10005.0
sbs(g9
S'count: 9'
p251
tp252
g0
(g17
g2
Ntp253
Rp254
(dp255
g21
F0.5
sg22
I10000
sg23
g24
((dp256
I0
I2342
sI1
I3549
sI2
I2783
sI3
I1055
sI4
I248
sI5
I18
sI6
I5
stp257
Rp258
sg28
I7
sg29
F10003.5
sbs(g11
S'count: /'
p259
tp260
g0
(g17
g2
Ntp261
Rp262
(dp263
g21
F0.5
sg22
I10000
sg23
g24
((dp264
I0
I10000
stp265
Rp266
sg28
I2
sg29
F10001.0
sbs(g9
S'count: .'
p267
tp268
g0
(g17
g2
Ntp269
Rp270
(dp271
g21
F0.5
sg22
I10000
sg23
g24
((dp272
I0
I10000
stp273
Rp274
sg28
I2
sg29
F10001.0
sbs(g8
S'count: :'
p275
tp276
g0
(g17
g2
Ntp277
Rp278
(dp279
g21
F0.5
sg22
I10000
sg23
g24
((dp280
I0
I10000
stp281
Rp282
sg28
I2
sg29
F10001.0
sbs(g12
g30
tp283
g0
(g17
g2
Ntp284
Rp285
(dp286
g21
F0.5
sg22
I10000
sg23
g24
((dp287
I8
I10000
stp288
Rp289
sg28
I7
sg29
F10003.5
sbs(g11
S'count: 1'
p290
tp291
g0
(g17
g2
Ntp292
Rp293
(dp294
g21
F0.5
sg22
I10000
sg23
g24
((dp295
I0
I4691
sI1
I3589
sI2
I1371
sI3
I306
sI4
I34
sI5
I8
sI6
I1
stp296
Rp297
sg28
I10
sg29
F10005.0
sbs(g12
S'count: :'
p298
tp299
g0
(g17
g2
Ntp300
Rp301
(dp302
g21
F0.5
sg22
I10000
sg23
g24
((dp303
I2
I10000
stp304
Rp305
sg28
I2
sg29
F10001.0
sbs(g9
S'count: 2'
p306
tp307
g0
(g17
g2
Ntp308
Rp309
(dp310
g21
F0.5
sg22
I10000
sg23
g24
((dp311
I0
I1118
sI1
I2807
sI2
I3036
sI3
I1940
sI4
I797
sI5
I247
sI6
I43
sI7
I11
sI8
I1
stp312
Rp313
sg28
I9
sg29
F10004.5
sbs(g8
S'count: /'
p314
tp315
g0
(g17
g2
Ntp316
Rp317
(dp318
g21
F0.5
sg22
I10000
sg23
g24
((dp319
I2
I10000
stp320
Rp321
sg28
I2
sg29
F10001.0
sbs(g8
S'count: 2'
p322
tp323
g0
(g17
g2
Ntp324
Rp325
(dp326
g21
F0.5
sg22
I10000
sg23
g24
((dp327
I0
I2704
sI1
I4214
sI2
I2392
sI3
I621
sI4
I63
sI5
I6
stp328
Rp329
sg28
I9
sg29
F10004.5
sbs(g10
S'count: 9'
p330
tp331
g0
(g17
g2
Ntp332
Rp333
(dp334
g21
F0.5
sg22
I10000
sg23
g24
((dp335
I0
I8297
sI1
I1628
sI2
I75
stp336
Rp337
sg28
I7
sg29
F10003.5
sbssS'_label_probdist'
p338
g0
(g17
g2
Ntp339
Rp340
(dp341
g21
F0.5
sg22
I50000
sg23
g24
((dp342
g8
I10000
sg9
I10000
sg10
I10000
sg11
I10000
sg12
I10000
stp343
Rp344
sg28
I5
sg29
F50002.5
sbsb.