ccopy_reg
_reconstructor
p0
(cnltk.classify.naivebayes
NaiveBayesClassifier
p1
c__builtin__
object
p2
Ntp3
Rp4
(dp5
S'_labels'
p6
(lp7
S'date'
p8
aS'date_time'
p9
aS'time'
p10
asS'_feature_probdist'
p11
(dp12
(g10
S'count: 1'
p13
tp14
g0
(cnltk.probability
ELEProbDist
p15
g2
Ntp16
Rp17
(dp18
S'_gamma'
p19
F0.5
sS'_N'
p20
I10000
sS'_freqdist'
p21
cnltk.probability
FreqDist
p22
((dp23
I0
I2796
sI1
I4320
sI2
I2244
sI3
I567
sI4
I66
sI5
I7
stp24
Rp25
sS'_bins'
p26
I10
sS'_divisor'
p27
F10005.0
sbs(g9
S'count: 9'
p28
tp29
g0
(g15
g2
Ntp30
Rp31
(dp32
g19
F0.5
sg20
I10000
sg21
g22
((dp33
I0
I2246
sI1
I3606
sI2
I2806
sI3
I1053
sI4
I243
sI5
I44
sI6
I2
stp34
Rp35
sg26
I7
sg27
F10003.5
sbs(g8
S'count: 2'
p36
tp37
g0
(g15
g2
Ntp38
Rp39
(dp40
g19
F0.5
sg20
I10000
sg21
g22
((dp41
I0
I2714
sI1
I4231
sI2
I2391
sI3
I586
sI4
I76
sI5
I2
stp42
Rp43
sg26
I9
sg27
F10004.5
sbs(g9
S'count: /'
p44
tp45
g0
(g15
g2
Ntp46
Rp47
(dp48
g19
F0.5
sg20
I10000
sg21
g22
((dp49
I2
I10000
stp50
Rp51
sg26
I2
sg27
F10001.0
sbs(g8
S'count: .'
p52
tp53
g0
(g15
g2
Ntp54
Rp55
(dp56
g19
F0.5
sg20
I10000
sg21
g22
((dp57
I0
I10000
stp58
Rp59
sg26
I1
sg27
F10000.5
sbs(g9
S'count: .'
p60
tp61
g0
(g15
g2
Ntp62
Rp63
(dp64
g19
F0.5
sg20
I10000
sg21
g22
((dp65
I0
I10000
stp66
Rp67
sg26
I1
sg27
F10000.5
sbs(g8
S'count: /'
p68
tp69
g0
(g15
g2
Ntp70
Rp71
(dp72
g19
F0.5
sg20
I10000
sg21
g22
((dp73
I2
I10000
stp74
Rp75
sg26
I2
sg27
F10001.0
sbs(g9
S'count: 1'
p76
tp77
g0
(g15
g2
Ntp78
Rp79
(dp80
g19
F0.5
sg20
I10000
sg21
g22
((dp81
I0
I199
sI1
I1361
sI2
I2673
sI3
I2853
sI4
I1785
sI5
I837
sI6
I237
sI7
I48
sI8
I6
sI10
I1
stp82
Rp83
sg26
I10
sg27
F10005.0
sbs(g8
S'count: 1'
p84
tp85
g0
(g15
g2
Ntp86
Rp87
(dp88
g19
F0.5
sg20
I10000
sg21
g22
((dp89
I0
I733
sI1
I3626
sI2
I3505
sI3
I1662
sI4
I408
sI5
I64
sI6
I2
stp90
Rp91
sg26
I10
sg27
F10005.0
sbs(g8
S'count: 9'
p92
tp93
g0
(g15
g2
Ntp94
Rp95
(dp96
g19
F0.5
sg20
I10000
sg21
g22
((dp97
I0
I3104
sI1
I3767
sI2
I2514
sI3
I558
sI4
I54
sI5
I3
stp98
Rp99
sg26
I7
sg27
F10003.5
sbs(g8
S'count: :'
p100
tp101
g0
(g15
g2
Ntp102
Rp103
(dp104
g19
F0.5
sg20
I10000
sg21
g22
((dp105
I0
I10000
stp106
Rp107
sg26
I2
sg27
F10001.0
sbs(g10
S'count: /'
p108
tp109
g0
(g15
g2
Ntp110
Rp111
(dp112
g19
F0.5
sg20
I10000
sg21
g22
((dp113
I0
I10000
stp114
Rp115
sg26
I2
sg27
F10001.0
sbs(g9
S'count: 2'
p116
tp117
g0
(g15
g2
Ntp118
Rp119
(dp120
g19
F0.5
sg20
I10000
sg21
g22
((dp121
I0
I1093
sI1
I2879
sI2
I3082
sI3
I1894
sI4
I778
sI5
I225
sI6
I46
sI7
I2
sI8
I1
stp122
Rp123
sg26
I9
sg27
F10004.5
sbs(g10
S'count: 9'
p124
tp125
g0
(g15
g2
Ntp126
Rp127
(dp128
g19
F0.5
sg20
I10000
sg21
g22
((dp129
I0
I7378
sI1
I2353
sI2
I263
sI3
I6
stp130
Rp131
sg26
I7
sg27
F10003.5
sbs(g10
S'count: .'
p132
tp133
g0
(g15
g2
Ntp134
Rp135
(dp136
g19
F0.5
sg20
I10000
sg21
g22
((dp137
I0
I10000
stp138
Rp139
sg26
I1
sg27
F10000.5
sbs(g9
S'count: :'
p140
tp141
g0
(g15
g2
Ntp142
Rp143
(dp144
g19
F0.5
sg20
I10000
sg21
g22
((dp145
I2
I10000
stp146
Rp147
sg26
I2
sg27
F10001.0
sbs(g10
S'count: 2'
p148
tp149
g0
(g15
g2
Ntp150
Rp151
(dp152
g19
F0.5
sg20
I10000
sg21
g22
((dp153
I0
I4252
sI1
I3843
sI2
I1482
sI3
I366
sI4
I54
sI5
I3
stp154
Rp155
sg26
I9
sg27
F10004.5
sbs(g10
S'count: :'
p156
tp157
g0
(g15
g2
Ntp158
Rp159
(dp160
g19
F0.5
sg20
I10000
sg21
g22
((dp161
I2
I10000
stp162
Rp163
sg26
I2
sg27
F10001.0
sbssS'_label_probdist'
p164
g0
(g15
g2
Ntp165
Rp166
(dp167
g19
F0.5
sg20
I30000
sg21
g22
((dp168
g8
I10000
sg9
I10000
sg10
I10000
stp169
Rp170
sg26
I3
sg27
F30001.5
sbsb.