ccopy_reg
_reconstructor
p0
(cnltk.classify.naivebayes
NaiveBayesClassifier
p1
c__builtin__
object
p2
Ntp3
Rp4
(dp5
S'_labels'
p6
(lp7
S'date'
p8
aS'date_time'
p9
aS'float'
p10
aS'hex'
p11
aS'time'
p12
asS'_feature_probdist'
p13
(dp14
(g10
S'count: 2'
p15
tp16
g0
(cnltk.probability
ELEProbDist
p17
g2
Ntp18
Rp19
(dp20
S'_gamma'
p21
F0.5
sS'_N'
p22
I10000
sS'_freqdist'
p23
cnltk.probability
FreqDist
p24
((dp25
I0
I5629
sI1
I3728
sI2
I608
sI3
I35
stp26
Rp27
sS'_bins'
p28
I9
sS'_divisor'
p29
F10004.5
sbs(g12
S'count: /'
p30
tp31
g0
(g17
g2
Ntp32
Rp33
(dp34
g21
F0.5
sg22
I10000
sg23
g24
((dp35
I0
I10000
stp36
Rp37
sg28
I2
sg29
F10001.0
sbs(g8
S'count: 2'
p38
tp39
g0
(g17
g2
Ntp40
Rp41
(dp42
g21
F0.5
sg22
I10000
sg23
g24
((dp43
I0
I2704
sI1
I4214
sI2
I2392
sI3
I621
sI4
I63
sI5
I6
stp44
Rp45
sg28
I9
sg29
F10004.5
sbs(g9
S'count: /'
p46
tp47
g0
(g17
g2
Ntp48
Rp49
(dp50
g21
F0.5
sg22
I10000
sg23
g24
((dp51
I2
I10000
stp52
Rp53
sg28
I2
sg29
F10001.0
sbs(g11
S'count: 9'
p54
tp55
g0
(g17
g2
Ntp56
Rp57
(dp58
g21
F0.5
sg22
I10000
sg23
g24
((dp59
I0
I4612
sI1
I3704
sI2
I1319
sI3
I321
sI4
I40
sI5
I4
stp60
Rp61
sg28
I7
sg29
F10003.5
sbs(g9
S'count: :'
p62
tp63
g0
(g17
g2
Ntp64
Rp65
(dp66
g21
F0.5
sg22
I10000
sg23
g24
((dp67
I2
I10000
stp68
Rp69
sg28
I2
sg29
F10001.0
sbs(g11
S'count: 0'
p70
tp71
g0
(g17
g2
Ntp72
Rp73
(dp74
g21
F0.5
sg22
I10000
sg23
g24
((dp75
I0
I4620
sI1
I3648
sI2
I1355
sI3
I337
sI4
I37
sI5
I3
stp76
Rp77
sg28
I9
sg29
F10004.5
sbs(g8
S'count: 9'
p78
tp79
g0
(g17
g2
Ntp80
Rp81
(dp82
g21
F0.5
sg22
I10000
sg23
g24
((dp83
I0
I3125
sI1
I3838
sI2
I2464
sI3
I519
sI4
I52
sI5
I2
stp84
Rp85
sg28
I7
sg29
F10003.5
sbs(g10
S'count: :'
p86
tp87
g0
(g17
g2
Ntp88
Rp89
(dp90
g21
F0.5
sg22
I10000
sg23
g24
((dp91
I0
I10000
stp92
Rp93
sg28
I2
sg29
F10001.0
sbs(g12
S'count: 0'
p94
tp95
g0
(g17
g2
Ntp96
Rp97
(dp98
g21
F0.5
sg22
I10000
sg23
g24
((dp99
I0
I2814
sI1
I4337
sI2
I2210
sI3
I577
sI4
I60
sI5
I2
stp100
Rp101
sg28
I9
sg29
F10004.5
sbs(g11
S'len'
p102
tp103
g0
(g17
g2
Ntp104
Rp105
(dp106
g21
F0.5
sg22
I10000
sg23
g24
((dp107
I12
I10000
stp108
Rp109
sg28
I7
sg29
F10003.5
sbs(g9
S'count: 0'
p110
tp111
g0
(g17
g2
Ntp112
Rp113
(dp114
g21
F0.5
sg22
I10000
sg23
g24
((dp115
I0
I188
sI1
I1154
sI2
I2522
sI3
I2714
sI4
I2009
sI5
I974
sI6
I350
sI7
I81
sI8
I8
stp116
Rp117
sg28
I9
sg29
F10004.5
sbs(g11
S'count: .'
p118
tp119
g0
(g17
g2
Ntp120
Rp121
(dp122
g21
F0.5
sg22
I10000
sg23
g24
((dp123
I0
I10000
stp124
Rp125
sg28
I2
sg29
F10001.0
sbs(g8
S'count: /'
p126
tp127
g0
(g17
g2
Ntp128
Rp129
(dp130
g21
F0.5
sg22
I10000
sg23
g24
((dp131
I2
I10000
stp132
Rp133
sg28
I2
sg29
F10001.0
sbs(g8
S'count: 1'
p134
tp135
g0
(g17
g2
Ntp136
Rp137
(dp138
g21
F0.5
sg22
I10000
sg23
g24
((dp139
I0
I731
sI1
I3518
sI2
I3603
sI3
I1652
sI4
I449
sI5
I45
sI6
I2
stp140
Rp141
sg28
I10
sg29
F10005.0
sbs(g8
g102
tp142
g0
(g17
g2
Ntp143
Rp144
(dp145
g21
F0.5
sg22
I10000
sg23
g24
((dp146
I10
I10000
stp147
Rp148
sg28
I7
sg29
F10003.5
sbs(g12
S'count: .'
p149
tp150
g0
(g17
g2
Ntp151
Rp152
(dp153
g21
F0.5
sg22
I10000
sg23
g24
((dp154
I0
I10000
stp155
Rp156
sg28
I2
sg29
F10001.0
sbs(g11
S'count: 2'
p157
tp158
g0
(g17
g2
Ntp159
Rp160
(dp161
g21
F0.5
sg22
I10000
sg23
g24
((dp162
I0
I4642
sI1
I3700
sI2
I1325
sI3
I286
sI4
I44
sI5
I3
stp163
Rp164
sg28
I9
sg29
F10004.5
sbs(g12
S'count: 1'
p165
tp166
g0
(g17
g2
Ntp167
Rp168
(dp169
g21
F0.5
sg22
I10000
sg23
g24
((dp170
I0
I2846
sI1
I4260
sI2
I2273
sI3
I539
sI4
I76
sI5
I6
stp171
Rp172
sg28
I10
sg29
F10005.0
sbs(g10
S'count: 0'
p173
tp174
g0
(g17
g2
Ntp175
Rp176
(dp177
g21
F0.5
sg22
I10000
sg23
g24
((dp178
I1
I8266
sI2
I1652
sI3
I82
stp179
Rp180
sg28
I9
sg29
F10004.5
sbs(g8
S'count: 0'
p181
tp182
g0
(g17
g2
Ntp183
Rp184
(dp185
g21
F0.5
sg22
I10000
sg23
g24
((dp186
I0
I519
sI1
I3406
sI2
I3241
sI3
I1938
sI4
I826
sI5
I70
stp187
Rp188
sg28
I9
sg29
F10004.5
sbs(g8
S'count: .'
p189
tp190
g0
(g17
g2
Ntp191
Rp192
(dp193
g21
F0.5
sg22
I10000
sg23
g24
((dp194
I0
I10000
stp195
Rp196
sg28
I2
sg29
F10001.0
sbs(g9
g102
tp197
g0
(g17
g2
Ntp198
Rp199
(dp200
g21
F0.5
sg22
I10000
sg23
g24
((dp201
I19
I10000
stp202
Rp203
sg28
I7
sg29
F10003.5
sbs(g9
S'count: 1'
p204
tp205
g0
(g17
g2
Ntp206
Rp207
(dp208
g21
F0.5
sg22
I10000
sg23
g24
((dp209
I0
I207
sI1
I1334
sI2
I2760
sI3
I2783
sI4
I1792
sI5
I816
sI6
I235
sI7
I55
sI8
I17
sI10
I1
stp210
Rp211
sg28
I10
sg29
F10005.0
sbs(g10
S'count: .'
p212
tp213
g0
(g17
g2
Ntp214
Rp215
(dp216
g21
F0.5
sg22
I10000
sg23
g24
((dp217
I1
I10000
stp218
Rp219
sg28
I2
sg29
F10001.0
sbs(g10
g102
tp220
g0
(g17
g2
Ntp221
Rp222
(dp223
g21
F0.5
sg22
I10000
sg23
g24
((dp224
I3
I287
sI4
I2479
sI5
I7234
stp225
Rp226
sg28
I7
sg29
F10003.5
sbs(g12
S'count: 9'
p227
tp228
g0
(g17
g2
Ntp229
Rp230
(dp231
g21
F0.5
sg22
I10000
sg23
g24
((dp232
I0
I7483
sI1
I2273
sI2
I234
sI3
I10
stp233
Rp234
sg28
I7
sg29
F10003.5
sbs(g12
S'count: 2'
p235
tp236
g0
(g17
g2
Ntp237
Rp238
(dp239
g21
F0.5
sg22
I10000
sg23
g24
((dp240
I0
I4224
sI1
I3788
sI2
I1518
sI3
I405
sI4
I59
sI5
I6
stp241
Rp242
sg28
I9
sg29
F10004.5
sbs(g11
S'count: :'
p243
tp244
g0
(g17
g2
Ntp245
Rp246
(dp247
g21
F0.5
sg22
I10000
sg23
g24
((dp248
I0
I10000
stp249
Rp250
sg28
I2
sg29
F10001.0
sbs(g10
S'count: 1'
p251
tp252
g0
(g17
g2
Ntp253
Rp254
(dp255
g21
F0.5
sg22
I10000
sg23
g24
((dp256
I0
I5852
sI1
I3538
sI2
I584
sI3
I26
stp257
Rp258
sg28
I10
sg29
F10005.0
sbs(g9
S'count: 9'
p259
tp260
g0
(g17
g2
Ntp261
Rp262
(dp263
g21
F0.5
sg22
I10000
sg23
g24
((dp264
I0
I2342
sI1
I3549
sI2
I2783
sI3
I1055
sI4
I248
sI5
I18
sI6
I5
stp265
Rp266
sg28
I7
sg29
F10003.5
sbs(g11
S'count: /'
p267
tp268
g0
(g17
g2
Ntp269
Rp270
(dp271
g21
F0.5
sg22
I10000
sg23
g24
((dp272
I0
I10000
stp273
Rp274
sg28
I2
sg29
F10001.0
sbs(g9
S'count: .'
p275
tp276
g0
(g17
g2
Ntp277
Rp278
(dp279
g21
F0.5
sg22
I10000
sg23
g24
((dp280
I0
I10000
stp281
Rp282
sg28
I2
sg29
F10001.0
sbs(g8
S'count: :'
p283
tp284
g0
(g17
g2
Ntp285
Rp286
(dp287
g21
F0.5
sg22
I10000
sg23
g24
((dp288
I0
I10000
stp289
Rp290
sg28
I2
sg29
F10001.0
sbs(g10
S'count: /'
p291
tp292
g0
(g17
g2
Ntp293
Rp294
(dp295
g21
F0.5
sg22
I10000
sg23
g24
((dp296
I0
I10000
stp297
Rp298
sg28
I2
sg29
F10001.0
sbs(g11
S'count: 1'
p299
tp300
g0
(g17
g2
Ntp301
Rp302
(dp303
g21
F0.5
sg22
I10000
sg23
g24
((dp304
I0
I4691
sI1
I3589
sI2
I1371
sI3
I306
sI4
I34
sI5
I8
sI6
I1
stp305
Rp306
sg28
I10
sg29
F10005.0
sbs(g12
S'count: :'
p307
tp308
g0
(g17
g2
Ntp309
Rp310
(dp311
g21
F0.5
sg22
I10000
sg23
g24
((dp312
I2
I10000
stp313
Rp314
sg28
I2
sg29
F10001.0
sbs(g9
S'count: 2'
p315
tp316
g0
(g17
g2
Ntp317
Rp318
(dp319
g21
F0.5
sg22
I10000
sg23
g24
((dp320
I0
I1118
sI1
I2807
sI2
I3036
sI3
I1940
sI4
I797
sI5
I247
sI6
I43
sI7
I11
sI8
I1
stp321
Rp322
sg28
I9
sg29
F10004.5
sbs(g12
g102
tp323
g0
(g17
g2
Ntp324
Rp325
(dp326
g21
F0.5
sg22
I10000
sg23
g24
((dp327
I8
I10000
stp328
Rp329
sg28
I7
sg29
F10003.5
sbs(g10
S'count: 9'
p330
tp331
g0
(g17
g2
Ntp332
Rp333
(dp334
g21
F0.5
sg22
I10000
sg23
g24
((dp335
I0
I8297
sI1
I1628
sI2
I75
stp336
Rp337
sg28
I7
sg29
F10003.5
sbssS'_label_probdist'
p338
g0
(g17
g2
Ntp339
Rp340
(dp341
g21
F0.5
sg22
I50000
sg23
g24
((dp342
g8
I10000
sg9
I10000
sg10
I10000
sg11
I10000
sg12
I10000
stp343
Rp344
sg28
I5
sg29
F50002.5
sbsb.