ccopy_reg
_reconstructor
p0
(cnltk.classify.naivebayes
NaiveBayesClassifier
p1
c__builtin__
object
p2
Ntp3
Rp4
(dp5
S'_labels'
p6
(lp7
S'date'
p8
aS'date_time'
p9
aS'float'
p10
aS'hex'
p11
aS'time'
p12
asS'_feature_probdist'
p13
(dp14
(g10
S'count: 2'
p15
tp16
g0
(cnltk.probability
ELEProbDist
p17
g2
Ntp18
Rp19
(dp20
S'_gamma'
p21
F0.5
sS'_N'
p22
I10000
sS'_freqdist'
p23
cnltk.probability
FreqDist
p24
((dp25
I0
I5798
sI1
I3621
sI2
I549
sI3
I32
stp26
Rp27
sS'_bins'
p28
I8
sS'_divisor'
p29
F10004.0
sbs(g10
S'len'
p30
tp31
g0
(g17
g2
Ntp32
Rp33
(dp34
g21
F0.5
sg22
I10000
sg23
g24
((dp35
I3
I289
sI4
I2526
sI5
I7185
stp36
Rp37
sg28
I7
sg29
F10003.5
sbs(g8
S'count: 2'
p38
tp39
g0
(g17
g2
Ntp40
Rp41
(dp42
g21
F0.5
sg22
I10000
sg23
g24
((dp43
I0
I2649
sI1
I4289
sI2
I2350
sI3
I619
sI4
I87
sI5
I6
stp44
Rp45
sg28
I8
sg29
F10004.0
sbs(g9
S'count: /'
p46
tp47
g0
(g17
g2
Ntp48
Rp49
(dp50
g21
F0.5
sg22
I10000
sg23
g24
((dp51
I2
I10000
stp52
Rp53
sg28
I2
sg29
F10001.0
sbs(g11
S'count: 9'
p54
tp55
g0
(g17
g2
Ntp56
Rp57
(dp58
g21
F0.5
sg22
I10000
sg23
g24
((dp59
I0
I4573
sI1
I3764
sI2
I1283
sI3
I329
sI4
I46
sI5
I4
sI6
I1
stp60
Rp61
sg28
I8
sg29
F10004.0
sbs(g9
S'count: :'
p62
tp63
g0
(g17
g2
Ntp64
Rp65
(dp66
g21
F0.5
sg22
I10000
sg23
g24
((dp67
I2
I10000
stp68
Rp69
sg28
I2
sg29
F10001.0
sbs(g11
S'count: 0'
p70
tp71
g0
(g17
g2
Ntp72
Rp73
(dp74
g21
F0.5
sg22
I10000
sg23
g24
((dp75
I0
I4686
sI1
I3608
sI2
I1344
sI3
I303
sI4
I54
sI5
I5
stp76
Rp77
sg28
I10
sg29
F10005.0
sbs(g8
S'count: 9'
p78
tp79
g0
(g17
g2
Ntp80
Rp81
(dp82
g21
F0.5
sg22
I10000
sg23
g24
((dp83
I0
I3157
sI1
I3776
sI2
I2466
sI3
I549
sI4
I50
sI5
I2
stp84
Rp85
sg28
I8
sg29
F10004.0
sbs(g10
S'count: :'
p86
tp87
g0
(g17
g2
Ntp88
Rp89
(dp90
g21
F0.5
sg22
I10000
sg23
g24
((dp91
I0
I10000
stp92
Rp93
sg28
I2
sg29
F10001.0
sbs(g12
S'count: 0'
p94
tp95
g0
(g17
g2
Ntp96
Rp97
(dp98
g21
F0.5
sg22
I10000
sg23
g24
((dp99
I0
I2780
sI1
I4369
sI2
I2233
sI3
I551
sI4
I61
sI5
I6
stp100
Rp101
sg28
I10
sg29
F10005.0
sbs(g11
g30
tp102
g0
(g17
g2
Ntp103
Rp104
(dp105
g21
F0.5
sg22
I10000
sg23
g24
((dp106
I12
I10000
stp107
Rp108
sg28
I7
sg29
F10003.5
sbs(g8
g30
tp109
g0
(g17
g2
Ntp110
Rp111
(dp112
g21
F0.5
sg22
I10000
sg23
g24
((dp113
I10
I10000
stp114
Rp115
sg28
I7
sg29
F10003.5
sbs(g11
S'count: .'
p116
tp117
g0
(g17
g2
Ntp118
Rp119
(dp120
g21
F0.5
sg22
I10000
sg23
g24
((dp121
I0
I10000
stp122
Rp123
sg28
I2
sg29
F10001.0
sbs(g10
S'count: /'
p124
tp125
g0
(g17
g2
Ntp126
Rp127
(dp128
g21
F0.5
sg22
I10000
sg23
g24
((dp129
I0
I10000
stp130
Rp131
sg28
I2
sg29
F10001.0
sbs(g8
S'count: 1'
p132
tp133
g0
(g17
g2
Ntp134
Rp135
(dp136
g21
F0.5
sg22
I10000
sg23
g24
((dp137
I0
I768
sI1
I3607
sI2
I3545
sI3
I1604
sI4
I416
sI5
I59
sI6
I1
stp138
Rp139
sg28
I10
sg29
F10005.0
sbs(g9
S'count: 0'
p140
tp141
g0
(g17
g2
Ntp142
Rp143
(dp144
g21
F0.5
sg22
I10000
sg23
g24
((dp145
I0
I163
sI1
I1247
sI2
I2476
sI3
I2747
sI4
I1936
sI5
I996
sI6
I348
sI7
I73
sI8
I12
sI9
I2
stp146
Rp147
sg28
I10
sg29
F10005.0
sbs(g12
S'count: .'
p148
tp149
g0
(g17
g2
Ntp150
Rp151
(dp152
g21
F0.5
sg22
I10000
sg23
g24
((dp153
I0
I10000
stp154
Rp155
sg28
I2
sg29
F10001.0
sbs(g11
S'count: 2'
p156
tp157
g0
(g17
g2
Ntp158
Rp159
(dp160
g21
F0.5
sg22
I10000
sg23
g24
((dp161
I0
I4587
sI1
I3680
sI2
I1384
sI3
I281
sI4
I63
sI5
I5
stp162
Rp163
sg28
I8
sg29
F10004.0
sbs(g12
S'count: 1'
p164
tp165
g0
(g17
g2
Ntp166
Rp167
(dp168
g21
F0.5
sg22
I10000
sg23
g24
((dp169
I0
I2857
sI1
I4312
sI2
I2213
sI3
I542
sI4
I72
sI5
I4
stp170
Rp171
sg28
I10
sg29
F10005.0
sbs(g10
S'count: 0'
p172
tp173
g0
(g17
g2
Ntp174
Rp175
(dp176
g21
F0.5
sg22
I10000
sg23
g24
((dp177
I1
I8200
sI2
I1735
sI3
I65
stp178
Rp179
sg28
I10
sg29
F10005.0
sbs(g9
g30
tp180
g0
(g17
g2
Ntp181
Rp182
(dp183
g21
F0.5
sg22
I10000
sg23
g24
((dp184
I19
I10000
stp185
Rp186
sg28
I7
sg29
F10003.5
sbs(g8
S'count: .'
p187
tp188
g0
(g17
g2
Ntp189
Rp190
(dp191
g21
F0.5
sg22
I10000
sg23
g24
((dp192
I0
I10000
stp193
Rp194
sg28
I2
sg29
F10001.0
sbs(g8
S'count: 0'
p195
tp196
g0
(g17
g2
Ntp197
Rp198
(dp199
g21
F0.5
sg22
I10000
sg23
g24
((dp200
I0
I556
sI1
I3278
sI2
I3288
sI3
I1986
sI4
I822
sI5
I70
stp201
Rp202
sg28
I10
sg29
F10005.0
sbs(g9
S'count: 1'
p203
tp204
g0
(g17
g2
Ntp205
Rp206
(dp207
g21
F0.5
sg22
I10000
sg23
g24
((dp208
I0
I201
sI1
I1303
sI2
I2690
sI3
I2852
sI4
I1833
sI5
I831
sI6
I235
sI7
I48
sI8
I6
sI9
I1
stp209
Rp210
sg28
I10
sg29
F10005.0
sbs(g10
S'count: .'
p211
tp212
g0
(g17
g2
Ntp213
Rp214
(dp215
g21
F0.5
sg22
I10000
sg23
g24
((dp216
I1
I10000
stp217
Rp218
sg28
I2
sg29
F10001.0
sbs(g12
S'count: /'
p219
tp220
g0
(g17
g2
Ntp221
Rp222
(dp223
g21
F0.5
sg22
I10000
sg23
g24
((dp224
I0
I10000
stp225
Rp226
sg28
I2
sg29
F10001.0
sbs(g12
S'count: 9'
p227
tp228
g0
(g17
g2
Ntp229
Rp230
(dp231
g21
F0.5
sg22
I10000
sg23
g24
((dp232
I0
I7454
sI1
I2312
sI2
I223
sI3
I11
stp233
Rp234
sg28
I8
sg29
F10004.0
sbs(g12
S'count: 2'
p235
tp236
g0
(g17
g2
Ntp237
Rp238
(dp239
g21
F0.5
sg22
I10000
sg23
g24
((dp240
I0
I4210
sI1
I3812
sI2
I1608
sI3
I330
sI4
I40
stp241
Rp242
sg28
I8
sg29
F10004.0
sbs(g11
S'count: :'
p243
tp244
g0
(g17
g2
Ntp245
Rp246
(dp247
g21
F0.5
sg22
I10000
sg23
g24
((dp248
I0
I10000
stp249
Rp250
sg28
I2
sg29
F10001.0
sbs(g10
S'count: 1'
p251
tp252
g0
(g17
g2
Ntp253
Rp254
(dp255
g21
F0.5
sg22
I10000
sg23
g24
((dp256
I0
I5814
sI1
I3578
sI2
I576
sI3
I32
stp257
Rp258
sg28
I10
sg29
F10005.0
sbs(g9
S'count: 9'
p259
tp260
g0
(g17
g2
Ntp261
Rp262
(dp263
g21
F0.5
sg22
I10000
sg23
g24
((dp264
I0
I2233
sI1
I3648
sI2
I2793
sI3
I1058
sI4
I240
sI5
I24
sI6
I3
sI7
I1
stp265
Rp266
sg28
I8
sg29
F10004.0
sbs(g11
S'count: /'
p267
tp268
g0
(g17
g2
Ntp269
Rp270
(dp271
g21
F0.5
sg22
I10000
sg23
g24
((dp272
I0
I10000
stp273
Rp274
sg28
I2
sg29
F10001.0
sbs(g9
S'count: .'
p275
tp276
g0
(g17
g2
Ntp277
Rp278
(dp279
g21
F0.5
sg22
I10000
sg23
g24
((dp280
I0
I10000
stp281
Rp282
sg28
I2
sg29
F10001.0
sbs(g8
S'count: :'
p283
tp284
g0
(g17
g2
Ntp285
Rp286
(dp287
g21
F0.5
sg22
I10000
sg23
g24
((dp288
I0
I10000
stp289
Rp290
sg28
I2
sg29
F10001.0
sbs(g12
g30
tp291
g0
(g17
g2
Ntp292
Rp293
(dp294
g21
F0.5
sg22
I10000
sg23
g24
((dp295
I8
I10000
stp296
Rp297
sg28
I7
sg29
F10003.5
sbs(g11
S'count: 1'
p298
tp299
g0
(g17
g2
Ntp300
Rp301
(dp302
g21
F0.5
sg22
I10000
sg23
g24
((dp303
I0
I4704
sI1
I3639
sI2
I1313
sI3
I293
sI4
I46
sI5
I5
stp304
Rp305
sg28
I10
sg29
F10005.0
sbs(g12
S'count: :'
p306
tp307
g0
(g17
g2
Ntp308
Rp309
(dp310
g21
F0.5
sg22
I10000
sg23
g24
((dp311
I2
I10000
stp312
Rp313
sg28
I2
sg29
F10001.0
sbs(g9
S'count: 2'
p314
tp315
g0
(g17
g2
Ntp316
Rp317
(dp318
g21
F0.5
sg22
I10000
sg23
g24
((dp319
I0
I1095
sI1
I2807
sI2
I3011
sI3
I1988
sI4
I859
sI5
I188
sI6
I36
sI7
I16
stp320
Rp321
sg28
I8
sg29
F10004.0
sbs(g8
S'count: /'
p322
tp323
g0
(g17
g2
Ntp324
Rp325
(dp326
g21
F0.5
sg22
I10000
sg23
g24
((dp327
I2
I10000
stp328
Rp329
sg28
I2
sg29
F10001.0
sbs(g10
S'count: 9'
p330
tp331
g0
(g17
g2
Ntp332
Rp333
(dp334
g21
F0.5
sg22
I10000
sg23
g24
((dp335
I0
I8298
sI1
I1623
sI2
I79
stp336
Rp337
sg28
I8
sg29
F10004.0
sbssS'_label_probdist'
p338
g0
(g17
g2
Ntp339
Rp340
(dp341
g21
F0.5
sg22
I50000
sg23
g24
((dp342
g8
I10000
sg9
I10000
sg10
I10000
sg11
I10000
sg12
I10000
stp343
Rp344
sg28
I5
sg29
F50002.5
sbsb.