ccopy_reg
_reconstructor
p0
(cnltk.classify.naivebayes
NaiveBayesClassifier
p1
c__builtin__
object
p2
Ntp3
Rp4
(dp5
S'_labels'
p6
(lp7
S'date'
p8
aS'date_time'
p9
aS'float'
p10
aS'hex'
p11
aS'time'
p12
asS'_feature_probdist'
p13
(dp14
(g11
S'entry match at: ..\\/..\\/[2-4]\\d'
p15
tp16
g0
(cnltk.probability
ELEProbDist
p17
g2
Ntp18
Rp19
(dp20
S'_gamma'
p21
F0.5
sS'_N'
p22
I10000
sS'_freqdist'
p23
cnltk.probability
FreqDist
p24
((dp25
I0
I10000
stp26
Rp27
sS'_bins'
p28
I2
sS'_divisor'
p29
F10001.0
sbs(g8
S'len'
p30
tp31
g0
(g17
g2
Ntp32
Rp33
(dp34
g21
F0.5
sg22
I10000
sg23
g24
((dp35
I10
I10000
stp36
Rp37
sg28
I7
sg29
F10003.5
sbs(g9
S'entry match at: ..\\/..\\/[2-4]\\d'
p38
tp39
g0
(g17
g2
Ntp40
Rp41
(dp42
g21
F0.5
sg22
I10000
sg23
g24
((dp43
I0
I5858
sI1
I4142
stp44
Rp45
sg28
I2
sg29
F10001.0
sbs(g9
g30
tp46
g0
(g17
g2
Ntp47
Rp48
(dp49
g21
F0.5
sg22
I10000
sg23
g24
((dp50
I19
I10000
stp51
Rp52
sg28
I7
sg29
F10003.5
sbs(g11
S'entry match at: ..\\:..\\:..'
p53
tp54
g0
(g17
g2
Ntp55
Rp56
(dp57
g21
F0.5
sg22
I10000
sg23
g24
((dp58
I0
I10000
stp59
Rp60
sg28
I2
sg29
F10001.0
sbs(g8
S'entry match at: ..\\/..\\/[2-4]\\d'
p61
tp62
g0
(g17
g2
Ntp63
Rp64
(dp65
g21
F0.5
sg22
I10000
sg23
g24
((dp66
I0
I5836
sI1
I4164
stp67
Rp68
sg28
I2
sg29
F10001.0
sbs(g12
S'entry match at: ..\\/..\\/[2-4]\\d'
p69
tp70
g0
(g17
g2
Ntp71
Rp72
(dp73
g21
F0.5
sg22
I10000
sg23
g24
((dp74
I0
I10000
stp75
Rp76
sg28
I2
sg29
F10001.0
sbs(g9
S'entry match at: ..\\:..\\:..'
p77
tp78
g0
(g17
g2
Ntp79
Rp80
(dp81
g21
F0.5
sg22
I10000
sg23
g24
((dp82
I0
I10000
stp83
Rp84
sg28
I2
sg29
F10001.0
sbs(g10
S'entry match at: ..\\/..\\/[2-4]\\d'
p85
tp86
g0
(g17
g2
Ntp87
Rp88
(dp89
g21
F0.5
sg22
I10000
sg23
g24
((dp90
I0
I10000
stp91
Rp92
sg28
I2
sg29
F10001.0
sbs(g8
S'entry match at: ..\\:..\\:..'
p93
tp94
g0
(g17
g2
Ntp95
Rp96
(dp97
g21
F0.5
sg22
I10000
sg23
g24
((dp98
I0
I10000
stp99
Rp100
sg28
I2
sg29
F10001.0
sbs(g10
g30
tp101
g0
(g17
g2
Ntp102
Rp103
(dp104
g21
F0.5
sg22
I10000
sg23
g24
((dp105
I3
I287
sI4
I2479
sI5
I7234
stp106
Rp107
sg28
I7
sg29
F10003.5
sbs(g12
g30
tp108
g0
(g17
g2
Ntp109
Rp110
(dp111
g21
F0.5
sg22
I10000
sg23
g24
((dp112
I8
I10000
stp113
Rp114
sg28
I7
sg29
F10003.5
sbs(g12
S'entry match at: ..\\:..\\:..'
p115
tp116
g0
(g17
g2
Ntp117
Rp118
(dp119
g21
F0.5
sg22
I10000
sg23
g24
((dp120
I1
I10000
stp121
Rp122
sg28
I2
sg29
F10001.0
sbs(g10
S'entry match at: ..\\:..\\:..'
p123
tp124
g0
(g17
g2
Ntp125
Rp126
(dp127
g21
F0.5
sg22
I10000
sg23
g24
((dp128
I0
I10000
stp129
Rp130
sg28
I2
sg29
F10001.0
sbs(g11
g30
tp131
g0
(g17
g2
Ntp132
Rp133
(dp134
g21
F0.5
sg22
I10000
sg23
g24
((dp135
I12
I10000
stp136
Rp137
sg28
I7
sg29
F10003.5
sbssS'_label_probdist'
p138
g0
(g17
g2
Ntp139
Rp140
(dp141
g21
F0.5
sg22
I50000
sg23
g24
((dp142
g8
I10000
sg9
I10000
sg10
I10000
sg11
I10000
sg12
I10000
stp143
Rp144
sg28
I5
sg29
F50002.5
sbsb.