ccopy_reg
_reconstructor
p0
(cnltk.classify.naivebayes
NaiveBayesClassifier
p1
c__builtin__
object
p2
Ntp3
Rp4
(dp5
S'_labels'
p6
(lp7
S'date'
p8
aS'date_time'
p9
aS'time'
p10
asS'_feature_probdist'
p11
(dp12
(g10
S'count: 1'
p13
tp14
g0
(cnltk.probability
ELEProbDist
p15
g2
Ntp16
Rp17
(dp18
S'_gamma'
p19
F0.5
sS'_N'
p20
I10000
sS'_freqdist'
p21
cnltk.probability
FreqDist
p22
((dp23
I0
I2796
sI1
I4320
sI2
I2244
sI3
I567
sI4
I66
sI5
I7
stp24
Rp25
sS'_bins'
p26
I10
sS'_divisor'
p27
F10005.0
sbs(g9
S'count: 9'
p28
tp29
g0
(g15
g2
Ntp30
Rp31
(dp32
g19
F0.5
sg20
I10000
sg21
g22
((dp33
I0
I2246
sI1
I3606
sI2
I2806
sI3
I1053
sI4
I243
sI5
I44
sI6
I2
stp34
Rp35
sg26
I7
sg27
F10003.5
sbs(g8
S'count: 2'
p36
tp37
g0
(g15
g2
Ntp38
Rp39
(dp40
g19
F0.5
sg20
I10000
sg21
g22
((dp41
I0
I2714
sI1
I4231
sI2
I2391
sI3
I586
sI4
I76
sI5
I2
stp42
Rp43
sg26
I9
sg27
F10004.5
sbs(g9
S'count: /'
p44
tp45
g0
(g15
g2
Ntp46
Rp47
(dp48
g19
F0.5
sg20
I10000
sg21
g22
((dp49
I2
I10000
stp50
Rp51
sg26
I2
sg27
F10001.0
sbs(g8
S'count: .'
p52
tp53
g0
(g15
g2
Ntp54
Rp55
(dp56
g19
F0.5
sg20
I10000
sg21
g22
((dp57
I0
I10000
stp58
Rp59
sg26
I1
sg27
F10000.5
sbs(g9
S'count: .'
p60
tp61
g0
(g15
g2
Ntp62
Rp63
(dp64
g19
F0.5
sg20
I10000
sg21
g22
((dp65
I0
I10000
stp66
Rp67
sg26
I1
sg27
F10000.5
sbs(g9
S'len'
p68
tp69
g0
(g15
g2
Ntp70
Rp71
(dp72
g19
F0.5
sg20
I10000
sg21
g22
((dp73
I19
I10000
stp74
Rp75
sg26
I3
sg27
F10001.5
sbs(g8
S'count: /'
p76
tp77
g0
(g15
g2
Ntp78
Rp79
(dp80
g19
F0.5
sg20
I10000
sg21
g22
((dp81
I2
I10000
stp82
Rp83
sg26
I2
sg27
F10001.0
sbs(g9
S'count: 1'
p84
tp85
g0
(g15
g2
Ntp86
Rp87
(dp88
g19
F0.5
sg20
I10000
sg21
g22
((dp89
I0
I199
sI1
I1361
sI2
I2673
sI3
I2853
sI4
I1785
sI5
I837
sI6
I237
sI7
I48
sI8
I6
sI10
I1
stp90
Rp91
sg26
I10
sg27
F10005.0
sbs(g8
S'count: 1'
p92
tp93
g0
(g15
g2
Ntp94
Rp95
(dp96
g19
F0.5
sg20
I10000
sg21
g22
((dp97
I0
I733
sI1
I3626
sI2
I3505
sI3
I1662
sI4
I408
sI5
I64
sI6
I2
stp98
Rp99
sg26
I10
sg27
F10005.0
sbs(g8
S'count: 9'
p100
tp101
g0
(g15
g2
Ntp102
Rp103
(dp104
g19
F0.5
sg20
I10000
sg21
g22
((dp105
I0
I3104
sI1
I3767
sI2
I2514
sI3
I558
sI4
I54
sI5
I3
stp106
Rp107
sg26
I7
sg27
F10003.5
sbs(g8
g68
tp108
g0
(g15
g2
Ntp109
Rp110
(dp111
g19
F0.5
sg20
I10000
sg21
g22
((dp112
I10
I10000
stp113
Rp114
sg26
I3
sg27
F10001.5
sbs(g10
g68
tp115
g0
(g15
g2
Ntp116
Rp117
(dp118
g19
F0.5
sg20
I10000
sg21
g22
((dp119
I8
I10000
stp120
Rp121
sg26
I3
sg27
F10001.5
sbs(g8
S'count: :'
p122
tp123
g0
(g15
g2
Ntp124
Rp125
(dp126
g19
F0.5
sg20
I10000
sg21
g22
((dp127
I0
I10000
stp128
Rp129
sg26
I2
sg27
F10001.0
sbs(g10
S'count: /'
p130
tp131
g0
(g15
g2
Ntp132
Rp133
(dp134
g19
F0.5
sg20
I10000
sg21
g22
((dp135
I0
I10000
stp136
Rp137
sg26
I2
sg27
F10001.0
sbs(g9
S'count: 2'
p138
tp139
g0
(g15
g2
Ntp140
Rp141
(dp142
g19
F0.5
sg20
I10000
sg21
g22
((dp143
I0
I1093
sI1
I2879
sI2
I3082
sI3
I1894
sI4
I778
sI5
I225
sI6
I46
sI7
I2
sI8
I1
stp144
Rp145
sg26
I9
sg27
F10004.5
sbs(g10
S'count: 9'
p146
tp147
g0
(g15
g2
Ntp148
Rp149
(dp150
g19
F0.5
sg20
I10000
sg21
g22
((dp151
I0
I7378
sI1
I2353
sI2
I263
sI3
I6
stp152
Rp153
sg26
I7
sg27
F10003.5
sbs(g10
S'count: .'
p154
tp155
g0
(g15
g2
Ntp156
Rp157
(dp158
g19
F0.5
sg20
I10000
sg21
g22
((dp159
I0
I10000
stp160
Rp161
sg26
I1
sg27
F10000.5
sbs(g9
S'count: :'
p162
tp163
g0
(g15
g2
Ntp164
Rp165
(dp166
g19
F0.5
sg20
I10000
sg21
g22
((dp167
I2
I10000
stp168
Rp169
sg26
I2
sg27
F10001.0
sbs(g10
S'count: 2'
p170
tp171
g0
(g15
g2
Ntp172
Rp173
(dp174
g19
F0.5
sg20
I10000
sg21
g22
((dp175
I0
I4252
sI1
I3843
sI2
I1482
sI3
I366
sI4
I54
sI5
I3
stp176
Rp177
sg26
I9
sg27
F10004.5
sbs(g10
S'count: :'
p178
tp179
g0
(g15
g2
Ntp180
Rp181
(dp182
g19
F0.5
sg20
I10000
sg21
g22
((dp183
I2
I10000
stp184
Rp185
sg26
I2
sg27
F10001.0
sbssS'_label_probdist'
p186
g0
(g15
g2
Ntp187
Rp188
(dp189
g19
F0.5
sg20
I30000
sg21
g22
((dp190
g8
I10000
sg9
I10000
sg10
I10000
stp191
Rp192
sg26
I3
sg27
F30001.5
sbsb.