ccopy_reg
_reconstructor
p0
(cnltk.classify.naivebayes
NaiveBayesClassifier
p1
c__builtin__
object
p2
Ntp3
Rp4
(dp5
S'_labels'
p6
(lp7
S'date'
p8
aS'date_time'
p9
aS'float'
p10
aS'hex'
p11
aS'time'
p12
asS'_feature_probdist'
p13
(dp14
(g10
S'count: 2'
p15
tp16
g0
(cnltk.probability
ELEProbDist
p17
g2
Ntp18
Rp19
(dp20
S'_gamma'
p21
F0.5
sS'_N'
p22
I10000
sS'_freqdist'
p23
cnltk.probability
FreqDist
p24
((dp25
I0
I5794
sI1
I3575
sI2
I602
sI3
I29
stp26
Rp27
sS'_bins'
p28
I9
sS'_divisor'
p29
F10004.5
sbs(g10
S'len'
p30
tp31
g0
(g17
g2
Ntp32
Rp33
(dp34
g21
F0.5
sg22
I10000
sg23
g24
((dp35
I3
I295
sI4
I2386
sI5
I7319
stp36
Rp37
sg28
I7
sg29
F10003.5
sbs(g11
S'count: .'
p38
tp39
g0
(g17
g2
Ntp40
Rp41
(dp42
g21
F0.5
sg22
I10000
sg23
g24
((dp43
I0
I10000
stp44
Rp45
sg28
I2
sg29
F10001.0
sbs(g9
S'count: /'
p46
tp47
g0
(g17
g2
Ntp48
Rp49
(dp50
g21
F0.5
sg22
I10000
sg23
g24
((dp51
I2
I10000
stp52
Rp53
sg28
I2
sg29
F10001.0
sbs(g11
S'count: 9'
p54
tp55
g0
(g17
g2
Ntp56
Rp57
(dp58
g21
F0.5
sg22
I10000
sg23
g24
((dp59
I0
I4627
sI1
I3639
sI2
I1371
sI3
I301
sI4
I59
sI5
I3
stp60
Rp61
sg28
I7
sg29
F10003.5
sbs(g9
S'count: :'
p62
tp63
g0
(g17
g2
Ntp64
Rp65
(dp66
g21
F0.5
sg22
I10000
sg23
g24
((dp67
I2
I10000
stp68
Rp69
sg28
I2
sg29
F10001.0
sbs(g11
S'count: 0'
p70
tp71
g0
(g17
g2
Ntp72
Rp73
(dp74
g21
F0.5
sg22
I10000
sg23
g24
((dp75
I0
I4607
sI1
I3695
sI2
I1359
sI3
I289
sI4
I43
sI5
I7
stp76
Rp77
sg28
I10
sg29
F10005.0
sbs(g8
S'count: 9'
p78
tp79
g0
(g17
g2
Ntp80
Rp81
(dp82
g21
F0.5
sg22
I10000
sg23
g24
((dp83
I0
I3079
sI1
I3770
sI2
I2489
sI3
I609
sI4
I52
sI5
I1
stp84
Rp85
sg28
I7
sg29
F10003.5
sbs(g10
S'count: :'
p86
tp87
g0
(g17
g2
Ntp88
Rp89
(dp90
g21
F0.5
sg22
I10000
sg23
g24
((dp91
I0
I10000
stp92
Rp93
sg28
I2
sg29
F10001.0
sbs(g12
S'count: 0'
p94
tp95
g0
(g17
g2
Ntp96
Rp97
(dp98
g21
F0.5
sg22
I10000
sg23
g24
((dp99
I0
I2849
sI1
I4336
sI2
I2187
sI3
I549
sI4
I72
sI5
I7
stp100
Rp101
sg28
I10
sg29
F10005.0
sbs(g11
g30
tp102
g0
(g17
g2
Ntp103
Rp104
(dp105
g21
F0.5
sg22
I10000
sg23
g24
((dp106
I12
I10000
stp107
Rp108
sg28
I7
sg29
F10003.5
sbs(g8
g30
tp109
g0
(g17
g2
Ntp110
Rp111
(dp112
g21
F0.5
sg22
I10000
sg23
g24
((dp113
I10
I10000
stp114
Rp115
sg28
I7
sg29
F10003.5
sbs(g8
S'count: /'
p116
tp117
g0
(g17
g2
Ntp118
Rp119
(dp120
g21
F0.5
sg22
I10000
sg23
g24
((dp121
I2
I10000
stp122
Rp123
sg28
I2
sg29
F10001.0
sbs(g8
S'count: 1'
p124
tp125
g0
(g17
g2
Ntp126
Rp127
(dp128
g21
F0.5
sg22
I10000
sg23
g24
((dp129
I0
I730
sI1
I3558
sI2
I3618
sI3
I1628
sI4
I420
sI5
I44
sI6
I2
stp130
Rp131
sg28
I10
sg29
F10005.0
sbs(g9
S'count: 0'
p132
tp133
g0
(g17
g2
Ntp134
Rp135
(dp136
g21
F0.5
sg22
I10000
sg23
g24
((dp137
I0
I149
sI1
I1109
sI2
I2525
sI3
I2715
sI4
I2027
sI5
I1020
sI6
I367
sI7
I73
sI8
I13
sI9
I2
stp138
Rp139
sg28
I10
sg29
F10005.0
sbs(g12
S'count: .'
p140
tp141
g0
(g17
g2
Ntp142
Rp143
(dp144
g21
F0.5
sg22
I10000
sg23
g24
((dp145
I0
I10000
stp146
Rp147
sg28
I2
sg29
F10001.0
sbs(g8
S'count: .'
p148
tp149
g0
(g17
g2
Ntp150
Rp151
(dp152
g21
F0.5
sg22
I10000
sg23
g24
((dp153
I0
I10000
stp154
Rp155
sg28
I2
sg29
F10001.0
sbs(g12
S'count: 1'
p156
tp157
g0
(g17
g2
Ntp158
Rp159
(dp160
g21
F0.5
sg22
I10000
sg23
g24
((dp161
I0
I2782
sI1
I4351
sI2
I2256
sI3
I538
sI4
I66
sI5
I6
sI6
I1
stp162
Rp163
sg28
I10
sg29
F10005.0
sbs(g10
S'count: 0'
p164
tp165
g0
(g17
g2
Ntp166
Rp167
(dp168
g21
F0.5
sg22
I10000
sg23
g24
((dp169
I1
I8195
sI2
I1721
sI3
I84
stp170
Rp171
sg28
I10
sg29
F10005.0
sbs(g9
g30
tp172
g0
(g17
g2
Ntp173
Rp174
(dp175
g21
F0.5
sg22
I10000
sg23
g24
((dp176
I19
I10000
stp177
Rp178
sg28
I7
sg29
F10003.5
sbs(g11
S'count: 2'
p179
tp180
g0
(g17
g2
Ntp181
Rp182
(dp183
g21
F0.5
sg22
I10000
sg23
g24
((dp184
I0
I4702
sI1
I3575
sI2
I1347
sI3
I322
sI4
I51
sI5
I3
stp185
Rp186
sg28
I9
sg29
F10004.5
sbs(g8
S'count: 0'
p187
tp188
g0
(g17
g2
Ntp189
Rp190
(dp191
g21
F0.5
sg22
I10000
sg23
g24
((dp192
I0
I587
sI1
I3315
sI2
I3261
sI3
I1971
sI4
I815
sI5
I51
stp193
Rp194
sg28
I10
sg29
F10005.0
sbs(g9
S'count: 1'
p195
tp196
g0
(g17
g2
Ntp197
Rp198
(dp199
g21
F0.5
sg22
I10000
sg23
g24
((dp200
I0
I227
sI1
I1336
sI2
I2754
sI3
I2803
sI4
I1791
sI5
I795
sI6
I233
sI7
I51
sI8
I9
sI9
I1
stp201
Rp202
sg28
I10
sg29
F10005.0
sbs(g10
S'count: .'
p203
tp204
g0
(g17
g2
Ntp205
Rp206
(dp207
g21
F0.5
sg22
I10000
sg23
g24
((dp208
I1
I10000
stp209
Rp210
sg28
I2
sg29
F10001.0
sbs(g12
S'count: /'
p211
tp212
g0
(g17
g2
Ntp213
Rp214
(dp215
g21
F0.5
sg22
I10000
sg23
g24
((dp216
I0
I10000
stp217
Rp218
sg28
I2
sg29
F10001.0
sbs(g12
S'count: 9'
p219
tp220
g0
(g17
g2
Ntp221
Rp222
(dp223
g21
F0.5
sg22
I10000
sg23
g24
((dp224
I0
I7412
sI1
I2362
sI2
I221
sI3
I5
stp225
Rp226
sg28
I7
sg29
F10003.5
sbs(g12
S'count: 2'
p227
tp228
g0
(g17
g2
Ntp229
Rp230
(dp231
g21
F0.5
sg22
I10000
sg23
g24
((dp232
I0
I4283
sI1
I3689
sI2
I1636
sI3
I347
sI4
I40
sI5
I5
stp233
Rp234
sg28
I9
sg29
F10004.5
sbs(g11
S'count: :'
p235
tp236
g0
(g17
g2
Ntp237
Rp238
(dp239
g21
F0.5
sg22
I10000
sg23
g24
((dp240
I0
I10000
stp241
Rp242
sg28
I2
sg29
F10001.0
sbs(g10
S'count: 1'
p243
tp244
g0
(g17
g2
Ntp245
Rp246
(dp247
g21
F0.5
sg22
I10000
sg23
g24
((dp248
I0
I5627
sI1
I3734
sI2
I607
sI3
I32
stp249
Rp250
sg28
I10
sg29
F10005.0
sbs(g9
S'count: 9'
p251
tp252
g0
(g17
g2
Ntp253
Rp254
(dp255
g21
F0.5
sg22
I10000
sg23
g24
((dp256
I0
I2282
sI1
I3573
sI2
I2843
sI3
I1045
sI4
I233
sI5
I22
sI6
I2
stp257
Rp258
sg28
I7
sg29
F10003.5
sbs(g11
S'count: /'
p259
tp260
g0
(g17
g2
Ntp261
Rp262
(dp263
g21
F0.5
sg22
I10000
sg23
g24
((dp264
I0
I10000
stp265
Rp266
sg28
I2
sg29
F10001.0
sbs(g9
S'count: .'
p267
tp268
g0
(g17
g2
Ntp269
Rp270
(dp271
g21
F0.5
sg22
I10000
sg23
g24
((dp272
I0
I10000
stp273
Rp274
sg28
I2
sg29
F10001.0
sbs(g8
S'count: :'
p275
tp276
g0
(g17
g2
Ntp277
Rp278
(dp279
g21
F0.5
sg22
I10000
sg23
g24
((dp280
I0
I10000
stp281
Rp282
sg28
I2
sg29
F10001.0
sbs(g10
S'count: /'
p283
tp284
g0
(g17
g2
Ntp285
Rp286
(dp287
g21
F0.5
sg22
I10000
sg23
g24
((dp288
I0
I10000
stp289
Rp290
sg28
I2
sg29
F10001.0
sbs(g11
S'count: 1'
p291
tp292
g0
(g17
g2
Ntp293
Rp294
(dp295
g21
F0.5
sg22
I10000
sg23
g24
((dp296
I0
I4512
sI1
I3716
sI2
I1425
sI3
I300
sI4
I44
sI5
I3
stp297
Rp298
sg28
I10
sg29
F10005.0
sbs(g12
S'count: :'
p299
tp300
g0
(g17
g2
Ntp301
Rp302
(dp303
g21
F0.5
sg22
I10000
sg23
g24
((dp304
I2
I10000
stp305
Rp306
sg28
I2
sg29
F10001.0
sbs(g9
S'count: 2'
p307
tp308
g0
(g17
g2
Ntp309
Rp310
(dp311
g21
F0.5
sg22
I10000
sg23
g24
((dp312
I0
I1099
sI1
I2795
sI2
I3079
sI3
I1970
sI4
I791
sI5
I212
sI6
I43
sI7
I8
sI8
I3
stp313
Rp314
sg28
I9
sg29
F10004.5
sbs(g12
g30
tp315
g0
(g17
g2
Ntp316
Rp317
(dp318
g21
F0.5
sg22
I10000
sg23
g24
((dp319
I8
I10000
stp320
Rp321
sg28
I7
sg29
F10003.5
sbs(g8
S'count: 2'
p322
tp323
g0
(g17
g2
Ntp324
Rp325
(dp326
g21
F0.5
sg22
I10000
sg23
g24
((dp327
I0
I2687
sI1
I4290
sI2
I2375
sI3
I585
sI4
I59
sI5
I4
stp328
Rp329
sg28
I9
sg29
F10004.5
sbs(g10
S'count: 9'
p330
tp331
g0
(g17
g2
Ntp332
Rp333
(dp334
g21
F0.5
sg22
I10000
sg23
g24
((dp335
I0
I8337
sI1
I1588
sI2
I75
stp336
Rp337
sg28
I7
sg29
F10003.5
sbssS'_label_probdist'
p338
g0
(g17
g2
Ntp339
Rp340
(dp341
g21
F0.5
sg22
I50000
sg23
g24
((dp342
g8
I10000
sg9
I10000
sg10
I10000
sg11
I10000
sg12
I10000
stp343
Rp344
sg28
I5
sg29
F50002.5
sbsb.